target datalayout = "e-m:e-p270:32:32-p271:32:32-p272:64:64-i64:64-i128:128-f80:128-n8:16:32:64-S128"
target triple = "x86_64-pc-linux-gnu"

%struct.iovec = type { ptr, i64 }
%"struct.folly::IOBuf::FillIovResult" = type { i64, i64 }
%"class.std::unique_ptr.137" = type { %"struct.std::__uniq_ptr_data.138" }
%"struct.std::__uniq_ptr_data.138" = type { %"class.std::__uniq_ptr_impl.139" }
%"class.std::__uniq_ptr_impl.139" = type { %"class.std::tuple.140" }
%"class.std::tuple.140" = type { %"struct.std::_Tuple_impl.141" }
%"struct.std::_Tuple_impl.141" = type { %"struct.std::_Head_base.144" }
%"struct.std::_Head_base.144" = type { ptr }

; Function Attrs: mustprogress nounwind uwtable
define linkonce_odr noundef nonnull align 8 dereferenceable(8) ptr @_ZNSt10_Head_baseILm0EPN5folly5IOBufELb0EE7_M_headERKS3_(ptr noundef nonnull align 8 dereferenceable(8) %0) #0 comdat align 2 {
  %2 = alloca ptr, align 8
  store ptr %0, ptr %2, align 8, !tbaa !353
  %3 = load ptr, ptr %2, align 8, !tbaa !353
  %4 = getelementptr inbounds nuw %"struct.std::_Head_base.144", ptr %3, i32 0, i32 0
  ret ptr %4
}

; Function Attrs: mustprogress nounwind uwtable
define linkonce_odr noundef nonnull align 8 dereferenceable(8) ptr @_ZNSt11_Tuple_implILm0EJPN5folly5IOBufESt14default_deleteIS1_EEE7_M_headERKS5_(ptr noundef nonnull align 8 dereferenceable(8) %0) #0 comdat align 2 {
  %2 = alloca ptr, align 8
  store ptr %0, ptr %2, align 8, !tbaa !351
  %3 = load ptr, ptr %2, align 8, !tbaa !351
  %4 = call noundef nonnull align 8 dereferenceable(8) ptr @_ZNSt10_Head_baseILm0EPN5folly5IOBufELb0EE7_M_headERKS3_(ptr noundef nonnull align 8 dereferenceable(8) %3) #25
  ret ptr %4
}

; Function Attrs: mustprogress nounwind uwtable
define linkonce_odr noundef nonnull align 8 dereferenceable(8) ptr @_ZSt12__get_helperILm0EPN5folly5IOBufEJSt14default_deleteIS1_EEERKT0_RKSt11_Tuple_implIXT_EJS5_DpT1_EE(ptr noundef nonnull align 8 dereferenceable(8) %0) #0 comdat {
  %2 = alloca ptr, align 8
  store ptr %0, ptr %2, align 8, !tbaa !351
  %3 = load ptr, ptr %2, align 8, !tbaa !351
  %4 = call noundef nonnull align 8 dereferenceable(8) ptr @_ZNSt11_Tuple_implILm0EJPN5folly5IOBufESt14default_deleteIS1_EEE7_M_headERKS5_(ptr noundef nonnull align 8 dereferenceable(8) %3) #25
  ret ptr %4
}

; Function Attrs: mustprogress nounwind uwtable
define linkonce_odr noundef nonnull align 8 dereferenceable(8) ptr @_ZSt3getILm0EJPN5folly5IOBufESt14default_deleteIS1_EEERKNSt13tuple_elementIXT_ESt5tupleIJDpT0_EEE4typeERKS9_(ptr noundef nonnull align 8 dereferenceable(8) %0) #0 comdat {
  %2 = alloca ptr, align 8
  store ptr %0, ptr %2, align 8, !tbaa !349
  %3 = load ptr, ptr %2, align 8, !tbaa !349
  %4 = call noundef nonnull align 8 dereferenceable(8) ptr @_ZSt12__get_helperILm0EPN5folly5IOBufEJSt14default_deleteIS1_EEERKT0_RKSt11_Tuple_implIXT_EJS5_DpT1_EE(ptr noundef nonnull align 8 dereferenceable(8) %3) #25
  ret ptr %4
}

; Function Attrs: mustprogress nounwind uwtable
define linkonce_odr noundef ptr @_ZNKSt15__uniq_ptr_implIN5folly5IOBufESt14default_deleteIS1_EE6_M_ptrEv(ptr noundef nonnull align 8 dereferenceable(8) %0) #0 comdat align 2 {
  %2 = alloca ptr, align 8
  store ptr %0, ptr %2, align 8, !tbaa !345
  %3 = load ptr, ptr %2, align 8
  %4 = getelementptr inbounds nuw %"class.std::__uniq_ptr_impl.139", ptr %3, i32 0, i32 0
  %5 = call noundef nonnull align 8 dereferenceable(8) ptr @_ZSt3getILm0EJPN5folly5IOBufESt14default_deleteIS1_EEERKNSt13tuple_elementIXT_ESt5tupleIJDpT0_EEE4typeERKS9_(ptr noundef nonnull align 8 dereferenceable(8) %4) #25
  %6 = load ptr, ptr %5, align 8, !tbaa !343
  ret ptr %6
}

; Function Attrs: mustprogress nounwind uwtable
define linkonce_odr noundef ptr @_ZNKSt10unique_ptrIN5folly5IOBufESt14default_deleteIS1_EE3getEv(ptr noundef nonnull align 8 dereferenceable(8) %0) #0 comdat align 2 {
  %2 = alloca ptr, align 8
  store ptr %0, ptr %2, align 8, !tbaa !94
  %3 = load ptr, ptr %2, align 8
  %4 = getelementptr inbounds nuw %"class.std::unique_ptr.137", ptr %3, i32 0, i32 0
  %5 = call noundef ptr @_ZNKSt15__uniq_ptr_implIN5folly5IOBufESt14default_deleteIS1_EE6_M_ptrEv(ptr noundef nonnull align 8 dereferenceable(8) %4) #25
  ret ptr %5
}

; Function Attrs: mustprogress nounwind uwtable
define linkonce_odr noundef ptr @_ZNKSt10unique_ptrIN5folly5IOBufESt14default_deleteIS1_EEptEv(ptr noundef nonnull align 8 dereferenceable(8) %0) #0 comdat align 2 {
  %2 = alloca ptr, align 8
  store ptr %0, ptr %2, align 8, !tbaa !94
  %3 = load ptr, ptr %2, align 8
  %4 = call noundef ptr @_ZNKSt10unique_ptrIN5folly5IOBufESt14default_deleteIS1_EE3getEv(ptr noundef nonnull align 8 dereferenceable(8) %3) #25
  ret ptr %4
}

; Function Attrs: mustprogress uwtable
define void @_ZN5folly14AsyncUDPSocket9fillIoVecEPKSt10unique_ptrINS_5IOBufESt14default_deleteIS2_EEP5iovecPmmm(ptr noundef nonnull align 16 dereferenceable(768) %0, ptr noundef %1, ptr noundef %2, ptr noundef %3, i64 noundef %4, i64 noundef %5) #1 align 2 {
  %7 = alloca ptr, align 8
  %8 = alloca ptr, align 8
  %9 = alloca ptr, align 8
  %10 = alloca ptr, align 8
  %11 = alloca i64, align 8
  %12 = alloca i64, align 8
  %13 = alloca i64, align 8
  %14 = alloca i64, align 8
  %15 = alloca i64, align 8
  %16 = alloca %"struct.folly::IOBuf::FillIovResult", align 8
  %17 = alloca i64, align 8
  store ptr %0, ptr %7, align 8, !tbaa !7
  store ptr %1, ptr %8, align 8, !tbaa !94
  store ptr %2, ptr %9, align 8, !tbaa !100
  store ptr %3, ptr %10, align 8, !tbaa !102
  store i64 %4, ptr %11, align 8, !tbaa !98
  store i64 %5, ptr %12, align 8, !tbaa !98
  call void @llvm.lifetime.start.p0(i64 8, ptr %13) #25
  %18 = load i64, ptr %12, align 8, !tbaa !98
  store i64 %18, ptr %13, align 8, !tbaa !98
  call void @llvm.lifetime.start.p0(i64 8, ptr %14) #25
  store i64 0, ptr %14, align 8, !tbaa !98
  call void @llvm.lifetime.start.p0(i64 8, ptr %15) #25
  store i64 0, ptr %15, align 8, !tbaa !98
  br label %19

19:                                               ; preds = %54, %6
  %20 = load i64, ptr %15, align 8, !tbaa !98
  %21 = load i64, ptr %11, align 8, !tbaa !98
  %22 = icmp ult i64 %20, %21
  br i1 %22, label %24, label %23

23:                                               ; preds = %19
  call void @llvm.lifetime.end.p0(i64 8, ptr %15) #25
  br label %57

24:                                               ; preds = %19
  %25 = load ptr, ptr %8, align 8, !tbaa !94
  %26 = load i64, ptr %15, align 8, !tbaa !98
  %27 = getelementptr inbounds nuw %"class.std::unique_ptr.137", ptr %25, i64 %26
  %28 = call noundef ptr @_ZNKSt10unique_ptrIN5folly5IOBufESt14default_deleteIS1_EEptEv(ptr noundef nonnull align 8 dereferenceable(8) %27) #25
  %29 = call noundef i64 @_ZNK5folly5IOBuf18countChainElementsEv(ptr noundef nonnull align 8 dereferenceable(56) %28) #25
  %30 = load ptr, ptr %10, align 8, !tbaa !102
  %31 = load i64, ptr %15, align 8, !tbaa !98
  %32 = getelementptr inbounds nuw i64, ptr %30, i64 %31
  store i64 %29, ptr %32, align 8, !tbaa !98
  call void @llvm.lifetime.start.p0(i64 16, ptr %16) #25
  %33 = load ptr, ptr %8, align 8, !tbaa !94
  %34 = load i64, ptr %15, align 8, !tbaa !98
  %35 = getelementptr inbounds nuw %"class.std::unique_ptr.137", ptr %33, i64 %34
  %36 = call noundef ptr @_ZNKSt10unique_ptrIN5folly5IOBufESt14default_deleteIS1_EEptEv(ptr noundef nonnull align 8 dereferenceable(8) %35) #25
  %37 = load ptr, ptr %9, align 8, !tbaa !100
  %38 = load i64, ptr %14, align 8, !tbaa !98
  %39 = getelementptr inbounds nuw %struct.iovec, ptr %37, i64 %38
  %40 = load i64, ptr %13, align 8, !tbaa !98
  %41 = call { i64, i64 } @_ZNK5folly5IOBuf7fillIovEP5iovecm(ptr noundef nonnull align 8 dereferenceable(56) %36, ptr noundef %39, i64 noundef %40)
  %42 = getelementptr inbounds nuw { i64, i64 }, ptr %16, i32 0, i32 0
  %43 = extractvalue { i64, i64 } %41, 0
  store i64 %43, ptr %42, align 8
  %44 = getelementptr inbounds nuw { i64, i64 }, ptr %16, i32 0, i32 1
  %45 = extractvalue { i64, i64 } %41, 1
  store i64 %45, ptr %44, align 8
  call void @llvm.lifetime.start.p0(i64 8, ptr %17) #25
  %46 = getelementptr inbounds nuw %"struct.folly::IOBuf::FillIovResult", ptr %16, i32 0, i32 0
  %47 = load i64, ptr %46, align 8, !tbaa !104
  store i64 %47, ptr %17, align 8, !tbaa !98
  %48 = load i64, ptr %17, align 8, !tbaa !98
  %49 = load i64, ptr %13, align 8, !tbaa !98
  %50 = sub i64 %49, %48
  store i64 %50, ptr %13, align 8, !tbaa !98
  %51 = load i64, ptr %17, align 8, !tbaa !98
  %52 = load i64, ptr %14, align 8, !tbaa !98
  %53 = add i64 %52, %51
  store i64 %53, ptr %14, align 8, !tbaa !98
  call void @llvm.lifetime.end.p0(i64 8, ptr %17) #25
  call void @llvm.lifetime.end.p0(i64 16, ptr %16) #25
  br label %54

54:                                               ; preds = %24
  %55 = load i64, ptr %15, align 8, !tbaa !98
  %56 = add i64 %55, 1
  store i64 %56, ptr %15, align 8, !tbaa !98
  br label %19, !llvm.loop !590

57:                                               ; preds = %23
  call void @llvm.lifetime.end.p0(i64 8, ptr %14) #25
  call void @llvm.lifetime.end.p0(i64 8, ptr %13) #25
  ret void
}