; Function Attrs: mustprogress uwtable
define void @_ZN5folly14AsyncUDPSocket9fillIoVecEPKSt10unique_ptrINS_5IOBufESt14default_deleteIS2_EEP5iovecPmmm(ptr noundef nonnull readnone align 16 captures(none) dereferenceable(768) %0, ptr noundef readonly captures(none) %1, ptr noundef %2, ptr noundef writeonly captures(none) %3, i64 noundef %4, i64 noundef %5) local_unnamed_addr #1 align 2 {
  %.not = icmp eq i64 %4, 0
  br i1 %.not, label %._crit_edge, label %.lr.ph

._crit_edge:                                      ; preds = %.lr.ph, %6
  ret void

.lr.ph:                                           ; preds = %6, %.lr.ph
  %.020 = phi i64 [ %15, %.lr.ph ], [ %5, %6 ]
  %.01619 = phi i64 [ %16, %.lr.ph ], [ 0, %6 ]
  %.01718 = phi i64 [ %17, %.lr.ph ], [ 0, %6 ]
  %7 = getelementptr inbounds nuw %"class.std::unique_ptr.137", ptr %1, i64 %.01718
  %8 = load ptr, ptr %7, align 8, !tbaa !126
  %9 = tail call noundef i64 @_ZNK5folly5IOBuf18countChainElementsEv(ptr noundef nonnull align 8 dereferenceable(56) %8) #36
  %10 = getelementptr inbounds nuw i64, ptr %3, i64 %.01718
  store i64 %9, ptr %10, align 8, !tbaa !32
  %11 = load ptr, ptr %7, align 8, !tbaa !126
  %12 = getelementptr inbounds nuw %struct.iovec, ptr %2, i64 %.01619
  %13 = tail call { i64, i64 } @_ZNK5folly5IOBuf7fillIovEP5iovecm(ptr noundef nonnull align 8 dereferenceable(56) %11, ptr noundef %12, i64 noundef %.020)
  %14 = extractvalue { i64, i64 } %13, 0
  %15 = sub i64 %.020, %14
  %16 = add i64 %14, %.01619
  %17 = add nuw i64 %.01718, 1
  %exitcond.not = icmp eq i64 %17, %4
  br i1 %exitcond.not, label %._crit_edge, label %.lr.ph, !llvm.loop !184
}